; Function Attrs: mustprogress nounwind uwtable
define dso_local void @_ZN4node4quic7Session19ShutdownStreamWriteElNS0_9QuicErrorE(ptr nocapture noundef nonnull align 8 dereferenceable(2616) %this, i64 noundef %id, ptr noundef nonnull %code) local_unnamed_addr #5 align 2 {
entry:
  %send_scope_depth_.i = getelementptr inbounds i8, ptr %this, i64 2488
  %0 = load i64, ptr %send_scope_depth_.i, align 8
  %inc.i = add i64 %0, 1
  store i64 %inc.i, ptr %send_scope_depth_.i, align 8
  %connection_.i = getelementptr inbounds i8, ptr %this, i64 1768
  %1 = load ptr, ptr %connection_.i, align 8
  %call2 = tail call noundef i32 @_ZNK4node4quic9QuicError4typeEv(ptr noundef nonnull align 8 dereferenceable(88) %code) #28
  %cmp = icmp eq i32 %call2, 1
  br i1 %cmp, label %cond.true, label %cond.end

cond.true:                                        ; preds = %entry
  %call3 = tail call noundef i64 @_ZNK4node4quic9QuicError4codeEv(ptr noundef nonnull align 8 dereferenceable(88) %code) #28
  br label %cond.end

cond.end:                                         ; preds = %entry, %cond.true
  %cond = phi i64 [ %call3, %cond.true ], [ 65280, %entry ]
  %call4 = tail call i32 @ngtcp2_conn_shutdown_stream_write(ptr noundef %1, i64 noundef %id, i64 noundef %cond) #28
  %2 = load i64, ptr %send_scope_depth_.i, align 8
  %dec.i = add i64 %2, -1
  store i64 %dec.i, ptr %send_scope_depth_.i, align 8
  %cmp.i = icmp eq i64 %dec.i, 0
  br i1 %cmp.i, label %land.lhs.true.i, label %_ZN4node4quic7Session20SendPendingDataScopeD2Ev.exit

land.lhs.true.i:                                  ; preds = %cond.end
  %realm_.i.i.i = getelementptr inbounds i8, ptr %this, i64 16
  %3 = load ptr, ptr %realm_.i.i.i, align 8
  %env_.i.i.i.i = getelementptr inbounds i8, ptr %3, i64 176
  %4 = load ptr, ptr %env_.i.i.i.i, align 8
  %call2.i.i = tail call noundef zeroext i1 @_ZN4node4quic19NgTcp2CallbackScope18in_ngtcp2_callbackEPNS_11EnvironmentE(ptr noundef %4) #28
  br i1 %call2.i.i, label %_ZN4node4quic7Session20SendPendingDataScopeD2Ev.exit, label %land.lhs.true.i.i

land.lhs.true.i.i:                                ; preds = %land.lhs.true.i
  %ptr_.i.i.i.i = getelementptr inbounds i8, ptr %this, i64 128
  %5 = load ptr, ptr %ptr_.i.i.i.i, align 8
  %destroyed.i.i.i = getelementptr inbounds i8, ptr %5, i64 8
  %6 = load i8, ptr %destroyed.i.i.i, align 8
  %tobool.i.not.i.i = icmp eq i8 %6, 0
  br i1 %tobool.i.not.i.i, label %land.lhs.true4.i.i, label %_ZN4node4quic7Session20SendPendingDataScopeD2Ev.exit

land.lhs.true4.i.i:                               ; preds = %land.lhs.true.i.i
  %7 = load ptr, ptr %connection_.i, align 8
  %call2.i.i.i = tail call i32 @ngtcp2_conn_is_in_draining_period(ptr noundef %7) #28
  %tobool.i1.not.i.i = icmp eq i32 %call2.i.i.i, 0
  br i1 %tobool.i1.not.i.i, label %land.lhs.true6.i.i, label %_ZN4node4quic7Session20SendPendingDataScopeD2Ev.exit

land.lhs.true6.i.i:                               ; preds = %land.lhs.true4.i.i
  %8 = load ptr, ptr %connection_.i, align 8
  %call2.i3.i.i = tail call i32 @ngtcp2_conn_is_in_closing_period(ptr noundef %8) #28
  %tobool.i4.not.i.i = icmp ne i32 %call2.i3.i.i, 0
  %endpoint_.i.i = getelementptr inbounds i8, ptr %this, i64 1776
  %9 = load ptr, ptr %endpoint_.i.i, align 8
  %cmp.i.i.not.i = icmp eq ptr %9, null
  %or.cond = select i1 %tobool.i4.not.i.i, i1 true, i1 %cmp.i.i.not.i
  br i1 %or.cond, label %_ZN4node4quic7Session20SendPendingDataScopeD2Ev.exit, label %if.then.i

if.then.i:                                        ; preds = %land.lhs.true6.i.i
  %application_.i.i = getelementptr inbounds i8, ptr %this, i64 2136
  %10 = load ptr, ptr %application_.i.i, align 8
  tail call void @_ZN4node4quic7Session11Application15SendPendingDataEv(ptr noundef nonnull align 8 dereferenceable(16) %10) #28
  br label %_ZN4node4quic7Session20SendPendingDataScopeD2Ev.exit

_ZN4node4quic7Session20SendPendingDataScopeD2Ev.exit: ; preds = %cond.end, %land.lhs.true.i, %land.lhs.true.i.i, %land.lhs.true4.i.i, %land.lhs.true6.i.i, %if.then.i
  ret void
}